; Function Attrs: mustprogress uwtable
define dso_local void @__cxa_vec_delete(ptr noundef %0, i64 noundef %1, i64 noundef %2, ptr noundef %3) local_unnamed_addr #0 personality ptr @__gxx_personality_v0 {
  %5 = alloca i64, align 8
  %6 = alloca %"class.__cxxabiv1::(anonymous namespace)::st_cxa_cleanup", align 8
  %.not.i = icmp eq ptr %0, null
  br i1 %.not.i, label %__cxa_vec_delete2.exit, label %7

7:                                                ; preds = %4
  %8 = sub i64 0, %2
  %9 = getelementptr inbounds i8, ptr %0, i64 %8
  %10 = icmp ne i64 %2, 0
  %11 = icmp ne ptr %3, null
  %or.cond.i = and i1 %10, %11
  br i1 %or.cond.i, label %12, label %30

12:                                               ; preds = %7
  %13 = getelementptr i8, ptr %0, i64 -8
  %.val.i = load i64, ptr %13, align 8, !tbaa !4
  call void @llvm.lifetime.start.p0(i64 8, ptr nonnull %5) #12
  store i64 %.val.i, ptr %5, align 8, !tbaa !4
  call void @llvm.lifetime.start.p0(i64 40, ptr nonnull %6) #12
  store ptr %0, ptr %6, align 8, !tbaa !8
  %14 = getelementptr inbounds nuw i8, ptr %6, i64 8
  store ptr %5, ptr %14, align 8, !tbaa !13
  %15 = getelementptr inbounds nuw i8, ptr %6, i64 16
  store i64 %1, ptr %15, align 8, !tbaa !14
  %16 = getelementptr inbounds nuw i8, ptr %6, i64 24
  store ptr %3, ptr %16, align 8, !tbaa !15
  %17 = getelementptr inbounds nuw i8, ptr %6, i64 32
  store i8 1, ptr %17, align 8, !tbaa !16
  %18 = call zeroext i1 @__cxa_uncaught_exception() #12
  %19 = mul i64 %.val.i, %1
  %20 = getelementptr inbounds nuw i8, ptr %0, i64 %19
  %21 = sub i64 0, %1
  br label %22

22:                                               ; preds = %25, %12
  %.0.i.i = phi ptr [ %20, %12 ], [ %26, %25 ]
  %23 = load i64, ptr %5, align 8, !tbaa !4
  %24 = add i64 %23, -1
  store i64 %24, ptr %5, align 8, !tbaa !4
  %.not15.i.i = icmp eq i64 %23, 0
  br i1 %.not15.i.i, label %__cxa_vec_dtor.exit.i, label %25

25:                                               ; preds = %22
  %26 = getelementptr inbounds i8, ptr %.0.i.i, i64 %21
  invoke void %3(ptr noundef %26)
          to label %22 unwind label %27, !llvm.loop !24

27:                                               ; preds = %25
  %28 = landingpad { ptr, i32 }
          cleanup
  br i1 %18, label %29, label %_ZN10__cxxabiv112_GLOBAL__N_112st_terminateD2Ev.exit.i.i

29:                                               ; preds = %27
  call void @_ZSt9terminatev() #13
  unreachable

_ZN10__cxxabiv112_GLOBAL__N_112st_terminateD2Ev.exit.i.i: ; preds = %27
  call fastcc void @_ZN10__cxxabiv112_GLOBAL__N_114st_cxa_cleanupD2Ev(ptr noundef nonnull align 8 dereferenceable(33) %6) #12
  call void @llvm.lifetime.end.p0(i64 40, ptr nonnull %6) #12
  call void @llvm.lifetime.end.p0(i64 8, ptr nonnull %5) #12
  call void @_ZdaPv(ptr noundef nonnull %9)
  resume { ptr, i32 } %28

__cxa_vec_dtor.exit.i:                            ; preds = %22
  call void @llvm.lifetime.end.p0(i64 40, ptr nonnull %6) #12
  call void @llvm.lifetime.end.p0(i64 8, ptr nonnull %5) #12
  br label %30

30:                                               ; preds = %__cxa_vec_dtor.exit.i, %7
  call void @_ZdaPv(ptr noundef nonnull %9)
  br label %__cxa_vec_delete2.exit

__cxa_vec_delete2.exit:                           ; preds = %30, %4
  ret void
}